; Function Attrs: mustprogress uwtable
define hidden void @_ZNK3ade4Node12InEdgeMapperclERKNS_6HandleINS_4EdgeEEE(ptr dead_on_unwind noalias writable sret(%"class.ade::Handle.55") align 8 %0, ptr noundef nonnull readnone align 1 captures(none) dereferenceable(1) %1, ptr noundef nonnull readonly align 8 captures(none) dereferenceable(16) %2) local_unnamed_addr #2 align 2 personality ptr @__gxx_personality_v0 {
  %4 = getelementptr inbounds nuw i8, ptr %2, i64 8
  %5 = load ptr, ptr %4, align 8, !tbaa !32, !noalias !62, !nonnull !65, !noundef !65
  %6 = getelementptr inbounds nuw i8, ptr %5, i64 8
  %7 = load atomic i32, ptr %6 monotonic, align 8, !noalias !62
  br label %8

8:                                                ; preds = %8, %3
  %.06.i.i.i.i.i.i.i = phi i32 [ %7, %3 ], [ %12, %8 ]
  %.not.not.not.i.not.i.i.i.i.i.i = icmp ne i32 %.06.i.i.i.i.i.i.i, 0
  tail call void @llvm.assume(i1 %.not.not.not.i.not.i.i.i.i.i.i)
  %9 = add nsw i32 %.06.i.i.i.i.i.i.i, 1
  %10 = cmpxchg weak ptr %6, i32 %.06.i.i.i.i.i.i.i, i32 %9 acq_rel monotonic, align 8, !noalias !62
  %11 = extractvalue { i32, i1 } %10, 1
  %12 = extractvalue { i32, i1 } %10, 0
  br i1 %11, label %_ZNKSt14__shared_countILN9__gnu_cxx12_Lock_policyE2EE16_M_get_use_countEv.exit.i.i.i.i.i, label %8, !llvm.loop !56

_ZNKSt14__shared_countILN9__gnu_cxx12_Lock_policyE2EE16_M_get_use_countEv.exit.i.i.i.i.i: ; preds = %8
  %13 = load atomic i32, ptr %6 monotonic, align 8, !noalias !62
  %14 = load ptr, ptr %2, align 8, !noalias !62
  %15 = load atomic i64, ptr %6 acquire, align 8
  %16 = icmp eq i64 %15, 4294967297
  %17 = trunc i64 %15 to i32
  br i1 %16, label %18, label %26

18:                                               ; preds = %_ZNKSt14__shared_countILN9__gnu_cxx12_Lock_policyE2EE16_M_get_use_countEv.exit.i.i.i.i.i
  store i32 0, ptr %6, align 8, !tbaa !58
  %19 = getelementptr inbounds nuw i8, ptr %5, i64 12
  store i32 0, ptr %19, align 4, !tbaa !60
  %20 = load ptr, ptr %5, align 8, !tbaa !36
  %21 = getelementptr inbounds nuw i8, ptr %20, i64 16
  %22 = load ptr, ptr %21, align 8
  tail call void %22(ptr noundef nonnull align 8 dereferenceable(16) %5) #21
  %23 = load ptr, ptr %5, align 8, !tbaa !36
  %24 = getelementptr inbounds nuw i8, ptr %23, i64 24
  %25 = load ptr, ptr %24, align 8
  tail call void %25(ptr noundef nonnull align 8 dereferenceable(16) %5) #21
  br label %_ZNK3ade6HandleINS_4EdgeEEptEv.exit

26:                                               ; preds = %_ZNKSt14__shared_countILN9__gnu_cxx12_Lock_policyE2EE16_M_get_use_countEv.exit.i.i.i.i.i
  %27 = load i8, ptr @__libc_single_threaded, align 1, !tbaa !33
  %.not.i.i.i1.i.i = icmp eq i8 %27, 0
  br i1 %.not.i.i.i1.i.i, label %30, label %28

28:                                               ; preds = %26
  %29 = add nsw i32 %17, -1
  store i32 %29, ptr %6, align 4, !tbaa !34
  br label %_ZN9__gnu_cxx27__exchange_and_add_dispatchEPii.exit.i.i.i.i.i

30:                                               ; preds = %26
  %31 = atomicrmw volatile add ptr %6, i32 -1 acq_rel, align 4
  br label %_ZN9__gnu_cxx27__exchange_and_add_dispatchEPii.exit.i.i.i.i.i

_ZN9__gnu_cxx27__exchange_and_add_dispatchEPii.exit.i.i.i.i.i: ; preds = %30, %28
  %.0.i.i.i.i.i.i = phi i32 [ %17, %28 ], [ %31, %30 ]
  %32 = icmp eq i32 %.0.i.i.i.i.i.i, 1
  br i1 %32, label %33, label %_ZNK3ade6HandleINS_4EdgeEEptEv.exit, !prof !61

33:                                               ; preds = %_ZN9__gnu_cxx27__exchange_and_add_dispatchEPii.exit.i.i.i.i.i
  tail call void @_ZNSt16_Sp_counted_baseILN9__gnu_cxx12_Lock_policyE2EE24_M_release_last_use_coldEv(ptr noundef nonnull align 8 dereferenceable(16) %5) #21
  br label %_ZNK3ade6HandleINS_4EdgeEEptEv.exit

_ZNK3ade6HandleINS_4EdgeEEptEv.exit:              ; preds = %18, %_ZN9__gnu_cxx27__exchange_and_add_dispatchEPii.exit.i.i.i.i.i, %33
  %.fr.i.i.i.i.i = freeze i32 %13
  %.not.i.i.i.i.i = icmp ne i32 %.fr.i.i.i.i.i, 0
  %34 = icmp ne ptr %14, null
  tail call void @llvm.assume(i1 %.not.i.i.i.i.i)
  tail call void @llvm.assume(i1 %34)
  tail call void @_ZNK3ade4Edge7srcNodeEv(ptr dead_on_unwind writable sret(%"class.ade::Handle.55") align 8 %0, ptr noundef nonnull align 8 dereferenceable(32) %14)
  ret void
}